target datalayout = "e-m:e-p270:32:32-p271:32:32-p272:64:64-i64:64-i128:128-f80:128-n8:16:32:64-S128"
target triple = "x86_64-unknown-linux-gnu"

%struct.SysBusDevice = type { %struct.DeviceState, i32, [32 x %struct.anon], i32, [32 x i32] }
%struct.DeviceState = type { %struct.Object, ptr, ptr, i8, i8, i64, ptr, i32, i8, ptr, %struct.NamedGPIOListHead, %struct.NamedClockListHead, %struct.BusStateHead, i32, i32, i32, %struct.ResettableState, ptr, %struct.MemReentrancyGuard }
%struct.Object = type { ptr, ptr, ptr, i32, ptr }
%struct.NamedGPIOListHead = type { ptr }
%struct.NamedClockListHead = type { ptr }
%struct.BusStateHead = type { ptr }
%struct.ResettableState = type { i32, i8, i8 }
%struct.MemReentrancyGuard = type { i8 }
%struct.anon = type { i64, ptr }
%struct.MemoryRegion = type { %struct.Object, i8, i8, i8, i8, i8, i8, i8, i8, i8, i8, ptr, ptr, ptr, ptr, ptr, ptr, i32, i128, i64, ptr, i64, i8, i8, i8, i8, i8, ptr, i64, i32, %union.anon, %union.anon.0, %union.anon.1, ptr, i32, ptr, ptr, i8 }
%union.anon = type { %struct.QTailQLink }
%struct.QTailQLink = type { ptr, ptr }
%union.anon.0 = type { %struct.QTailQLink }
%union.anon.1 = type { %struct.QTailQLink }
%struct.CPUState = type { %struct.DeviceState, ptr, i32, i32, ptr, i32, i8, i8, ptr, i8, i8, i8, i8, i8, i8, i8, i8, i32, i32, i32, i32, i64, i64, i64, [1 x %struct.__jmp_buf_tag], %struct.QemuMutex, %struct.anon.2, ptr, i32, ptr, ptr, ptr, ptr, i32, i32, %union.anon.3, %union.anon.4, %union.anon.5, ptr, ptr, i64, i32, ptr, ptr, ptr, i32, i64, i32, %struct.QemuLockCnt, [1 x i64], ptr, i32, i32, i32, i32, i32, ptr, i8, i8, i64, i8, i8, ptr, [8 x i8], [0 x i8], %struct.CPUNegativeOffsetState }
%struct.__jmp_buf_tag = type { [8 x i64], i32, %struct.__sigset_t }
%struct.__sigset_t = type { [16 x i64] }
%struct.QemuMutex = type { %union.pthread_mutex_t, i8 }
%union.pthread_mutex_t = type { %struct.__pthread_mutex_s }
%struct.__pthread_mutex_s = type { i32, i32, i32, i32, i32, i16, i16, %struct.__pthread_internal_list }
%struct.__pthread_internal_list = type { ptr, ptr }
%struct.anon.2 = type { ptr, ptr }
%union.anon.3 = type { %struct.QTailQLink }
%union.anon.4 = type { %struct.QTailQLink }
%union.anon.5 = type { %struct.QTailQLink }
%struct.QemuLockCnt = type { i32 }
%struct.CPUNegativeOffsetState = type { %struct.CPUTLB, %union.IcountDecr, i8, [11 x i8] }
%struct.CPUTLB = type { %struct.CPUTLBCommon, [16 x %struct.CPUTLBDesc], [16 x %struct.CPUTLBDescFast] }
%struct.CPUTLBCommon = type { %struct.QemuSpin, i16, i64, i64, i64 }
%struct.QemuSpin = type { i32 }
%struct.CPUTLBDesc = type { i64, i64, i64, i64, i64, i64, [8 x %union.CPUTLBEntry], [8 x %struct.CPUTLBEntryFull], ptr }
%union.CPUTLBEntry = type { %struct.anon.6 }
%struct.anon.6 = type { i64, i64, i64, i64 }
%struct.CPUTLBEntryFull = type { i64, i64, %struct.MemTxAttrs, i8, i8, [3 x i8], %union.anon.7 }
%struct.MemTxAttrs = type { i32 }
%union.anon.7 = type { %struct.anon.8 }
%struct.anon.8 = type { i8, i8, i8 }
%struct.CPUTLBDescFast = type { i64, ptr }
%union.IcountDecr = type { i32 }
%struct.RISCVAclintSwiState = type { %struct.SysBusDevice, %struct.MemoryRegion, i32, i32, i32, ptr }

@qemu_loglevel = external global i32, align 4
@.str.33 = private unnamed_addr constant [32 x i8] c"aclint-swi: invalid hartid: %zu\00", align 1
@.str.35 = private unnamed_addr constant [32 x i8] c"aclint-swi: invalid write: %08x\00", align 1

; Function Attrs: nounwind sspstrong uwtable
define internal void @qemu_irq_lower(ptr noundef %irq) #0 {
entry:
  %irq.addr = alloca ptr, align 8
  store ptr %irq, ptr %irq.addr, align 8
  %0 = load ptr, ptr %irq.addr, align 8
  call void @qemu_set_irq(ptr noundef %0, i32 noundef 0)
  ret void
}

; Function Attrs: nounwind sspstrong uwtable
define internal void @qemu_irq_raise(ptr noundef %irq) #0 {
entry:
  %irq.addr = alloca ptr, align 8
  store ptr %irq, ptr %irq.addr, align 8
  %0 = load ptr, ptr %irq.addr, align 8
  call void @qemu_set_irq(ptr noundef %0, i32 noundef 1)
  ret void
}

; Function Attrs: nounwind sspstrong uwtable
define internal zeroext i1 @qemu_loglevel_mask(i32 noundef %mask) #0 {
entry:
  %mask.addr = alloca i32, align 4
  store i32 %mask, ptr %mask.addr, align 4
  %0 = load i32, ptr @qemu_loglevel, align 4
  %1 = load i32, ptr %mask.addr, align 4
  %and = and i32 %0, %1
  %cmp = icmp ne i32 %and, 0
  ret i1 %cmp
}

; Function Attrs: nounwind sspstrong uwtable
define internal ptr @cpu_env(ptr noundef %cpu) #0 {
entry:
  %cpu.addr = alloca ptr, align 8
  store ptr %cpu, ptr %cpu.addr, align 8
  %0 = load ptr, ptr %cpu.addr, align 8
  %add.ptr = getelementptr %struct.CPUState, ptr %0, i64 1
  ret ptr %add.ptr
}

; Function Attrs: nounwind sspstrong uwtable
define internal void @riscv_aclint_swi_write(ptr noundef %opaque, i64 noundef %addr, i64 noundef %value, i32 noundef %size) #0 {
entry:
  %opaque.addr = alloca ptr, align 8
  %addr.addr = alloca i64, align 8
  %value.addr = alloca i64, align 8
  %size.addr = alloca i32, align 4
  %swi = alloca ptr, align 8
  %hartid = alloca i64, align 8
  %cpu = alloca ptr, align 8
  %env = alloca ptr, align 8
  store ptr %opaque, ptr %opaque.addr, align 8
  store i64 %addr, ptr %addr.addr, align 8
  store i64 %value, ptr %value.addr, align 8
  store i32 %size, ptr %size.addr, align 4
  %0 = load ptr, ptr %opaque.addr, align 8
  store ptr %0, ptr %swi, align 8
  %1 = load i64, ptr %addr.addr, align 8
  %2 = load ptr, ptr %swi, align 8
  %num_harts = getelementptr inbounds %struct.RISCVAclintSwiState, ptr %2, i32 0, i32 3
  %3 = load i32, ptr %num_harts, align 4
  %shl = shl i32 %3, 2
  %conv = zext i32 %shl to i64
  %cmp = icmp ult i64 %1, %conv
  br i1 %cmp, label %if.then, label %if.end31

if.then:                                          ; preds = %entry
  %4 = load ptr, ptr %swi, align 8
  %hartid_base = getelementptr inbounds %struct.RISCVAclintSwiState, ptr %4, i32 0, i32 2
  %5 = load i32, ptr %hartid_base, align 16
  %conv2 = zext i32 %5 to i64
  %6 = load i64, ptr %addr.addr, align 8
  %shr = lshr i64 %6, 2
  %add = add i64 %conv2, %shr
  store i64 %add, ptr %hartid, align 8
  %7 = load i64, ptr %hartid, align 8
  %call = call ptr @cpu_by_arch_id(i64 noundef %7)
  store ptr %call, ptr %cpu, align 8
  %8 = load ptr, ptr %cpu, align 8
  %tobool = icmp ne ptr %8, null
  br i1 %tobool, label %cond.true, label %cond.false

cond.true:                                        ; preds = %if.then
  %9 = load ptr, ptr %cpu, align 8
  %call3 = call ptr @cpu_env(ptr noundef %9)
  br label %cond.end

cond.false:                                       ; preds = %if.then
  br label %cond.end

cond.end:                                         ; preds = %cond.false, %cond.true
  %cond = phi ptr [ %call3, %cond.true ], [ null, %cond.false ]
  store ptr %cond, ptr %env, align 8
  %10 = load ptr, ptr %env, align 8
  %tobool4 = icmp ne ptr %10, null
  br i1 %tobool4, label %if.else, label %if.then5

if.then5:                                         ; preds = %cond.end
  br label %do.body

do.body:                                          ; preds = %if.then5
  %call6 = call zeroext i1 @qemu_loglevel_mask(i32 noundef 2048)
  %lnot = xor i1 %call6, true
  %lnot7 = xor i1 %lnot, true
  %lnot.ext = zext i1 %lnot7 to i32
  %conv8 = sext i32 %lnot.ext to i64
  %tobool9 = icmp ne i64 %conv8, 0
  br i1 %tobool9, label %if.then10, label %if.end

if.then10:                                        ; preds = %do.body
  %11 = load i64, ptr %hartid, align 8
  call void (ptr, ...) @qemu_log(ptr noundef @.str.33, i64 noundef %11)
  br label %if.end

if.end:                                           ; preds = %if.then10, %do.body
  br label %do.end

do.end:                                           ; preds = %if.end
  br label %if.end30

if.else:                                          ; preds = %cond.end
  %12 = load i64, ptr %addr.addr, align 8
  %and = and i64 %12, 3
  %cmp11 = icmp eq i64 %and, 0
  br i1 %cmp11, label %if.then13, label %if.end29

if.then13:                                        ; preds = %if.else
  %13 = load i64, ptr %value.addr, align 8
  %and14 = and i64 %13, 1
  %tobool15 = icmp ne i64 %and14, 0
  br i1 %tobool15, label %if.then16, label %if.else19

if.then16:                                        ; preds = %if.then13
  %14 = load ptr, ptr %swi, align 8
  %soft_irqs = getelementptr inbounds %struct.RISCVAclintSwiState, ptr %14, i32 0, i32 5
  %15 = load ptr, ptr %soft_irqs, align 16
  %16 = load i64, ptr %hartid, align 8
  %17 = load ptr, ptr %swi, align 8
  %hartid_base17 = getelementptr inbounds %struct.RISCVAclintSwiState, ptr %17, i32 0, i32 2
  %18 = load i32, ptr %hartid_base17, align 16
  %conv18 = zext i32 %18 to i64
  %sub = sub i64 %16, %conv18
  %arrayidx = getelementptr ptr, ptr %15, i64 %sub
  %19 = load ptr, ptr %arrayidx, align 8
  call void @qemu_irq_raise(ptr noundef %19)
  br label %if.end28

if.else19:                                        ; preds = %if.then13
  %20 = load ptr, ptr %swi, align 8
  %sswi = getelementptr inbounds %struct.RISCVAclintSwiState, ptr %20, i32 0, i32 4
  %21 = load i32, ptr %sswi, align 8
  %tobool20 = icmp ne i32 %21, 0
  br i1 %tobool20, label %if.end27, label %if.then21

if.then21:                                        ; preds = %if.else19
  %22 = load ptr, ptr %swi, align 8
  %soft_irqs22 = getelementptr inbounds %struct.RISCVAclintSwiState, ptr %22, i32 0, i32 5
  %23 = load ptr, ptr %soft_irqs22, align 16
  %24 = load i64, ptr %hartid, align 8
  %25 = load ptr, ptr %swi, align 8
  %hartid_base23 = getelementptr inbounds %struct.RISCVAclintSwiState, ptr %25, i32 0, i32 2
  %26 = load i32, ptr %hartid_base23, align 16
  %conv24 = zext i32 %26 to i64
  %sub25 = sub i64 %24, %conv24
  %arrayidx26 = getelementptr ptr, ptr %23, i64 %sub25
  %27 = load ptr, ptr %arrayidx26, align 8
  call void @qemu_irq_lower(ptr noundef %27)
  br label %if.end27

if.end27:                                         ; preds = %if.then21, %if.else19
  br label %if.end28

if.end28:                                         ; preds = %if.end27, %if.then16
  br label %do.end43

if.end29:                                         ; preds = %if.else
  br label %if.end30

if.end30:                                         ; preds = %if.end29, %do.end
  br label %if.end31

if.end31:                                         ; preds = %if.end30, %entry
  br label %do.body32

do.body32:                                        ; preds = %if.end31
  %call33 = call zeroext i1 @qemu_loglevel_mask(i32 noundef 1024)
  %lnot34 = xor i1 %call33, true
  %lnot36 = xor i1 %lnot34, true
  %lnot.ext37 = zext i1 %lnot36 to i32
  %conv38 = sext i32 %lnot.ext37 to i64
  %tobool39 = icmp ne i64 %conv38, 0
  br i1 %tobool39, label %if.then40, label %if.end42

if.then40:                                        ; preds = %do.body32
  %28 = load i64, ptr %addr.addr, align 8
  %conv41 = trunc i64 %28 to i32
  call void (ptr, ...) @qemu_log(ptr noundef @.str.35, i32 noundef %conv41)
  br label %if.end42

if.end42:                                         ; preds = %if.then40, %do.body32
  br label %do.end43

do.end43:                                         ; preds = %if.end42, %if.end28
  ret void
}