; Function Attrs: nounwind sspstrong uwtable
define internal void @riscv_aclint_swi_write(ptr noundef readonly captures(none) %opaque, i64 noundef %addr, i64 noundef %value, i32 %size) #0 {
entry:
  %num_harts = getelementptr inbounds nuw i8, ptr %opaque, i64 1092
  %0 = load i32, ptr %num_harts, align 4
  %shl = shl i32 %0, 2
  %conv = zext i32 %shl to i64
  %cmp = icmp ult i64 %addr, %conv
  br i1 %cmp, label %if.then, label %do.body32

if.then:                                          ; preds = %entry
  %hartid_base = getelementptr inbounds nuw i8, ptr %opaque, i64 1088
  %1 = load i32, ptr %hartid_base, align 16
  %conv2 = zext i32 %1 to i64
  %shr = lshr i64 %addr, 2
  %add = add nuw nsw i64 %shr, %conv2
  %call = tail call ptr @cpu_by_arch_id(i64 noundef %add) #6
  %tobool.not = icmp eq ptr %call, null
  %add.ptr.i = getelementptr i8, ptr %call, i64 10176
  %2 = icmp eq ptr %add.ptr.i, null
  %or.cond = or i1 %tobool.not, %2
  br i1 %or.cond, label %do.body, label %if.else

do.body:                                          ; preds = %if.then
  %3 = load i32, ptr @qemu_loglevel, align 4
  %and.i = and i32 %3, 2048
  %cmp.i.not = icmp eq i32 %and.i, 0
  br i1 %cmp.i.not, label %do.body32, label %if.then10

if.then10:                                        ; preds = %do.body
  tail call void (ptr, ...) @qemu_log(ptr noundef nonnull @.str.33, i64 noundef %add) #6
  br label %do.body32

if.else:                                          ; preds = %if.then
  %and = and i64 %addr, 3
  %cmp11 = icmp eq i64 %and, 0
  br i1 %cmp11, label %if.then13, label %do.body32

if.then13:                                        ; preds = %if.else
  %and14 = and i64 %value, 1
  %tobool15.not = icmp eq i64 %and14, 0
  br i1 %tobool15.not, label %if.else19, label %if.then16

if.then16:                                        ; preds = %if.then13
  %soft_irqs = getelementptr inbounds nuw i8, ptr %opaque, i64 1104
  %4 = load ptr, ptr %soft_irqs, align 16
  %5 = load i32, ptr %hartid_base, align 16
  %conv18 = zext i32 %5 to i64
  %sub = sub nsw i64 %add, %conv18
  %arrayidx = getelementptr ptr, ptr %4, i64 %sub
  %6 = load ptr, ptr %arrayidx, align 8
  tail call void @qemu_set_irq(ptr noundef %6, i32 noundef 1) #6
  br label %do.end43

if.else19:                                        ; preds = %if.then13
  %sswi = getelementptr inbounds nuw i8, ptr %opaque, i64 1096
  %7 = load i32, ptr %sswi, align 8
  %tobool20.not = icmp eq i32 %7, 0
  br i1 %tobool20.not, label %if.then21, label %do.end43

if.then21:                                        ; preds = %if.else19
  %soft_irqs22 = getelementptr inbounds nuw i8, ptr %opaque, i64 1104
  %8 = load ptr, ptr %soft_irqs22, align 16
  %9 = load i32, ptr %hartid_base, align 16
  %conv24 = zext i32 %9 to i64
  %sub25 = sub nsw i64 %add, %conv24
  %arrayidx26 = getelementptr ptr, ptr %8, i64 %sub25
  %10 = load ptr, ptr %arrayidx26, align 8
  tail call void @qemu_set_irq(ptr noundef %10, i32 noundef 0) #6
  br label %do.end43

do.body32:                                        ; preds = %entry, %if.else, %if.then10, %do.body
  %11 = load i32, ptr @qemu_loglevel, align 4
  %and.i14 = and i32 %11, 1024
  %cmp.i15.not = icmp eq i32 %and.i14, 0
  br i1 %cmp.i15.not, label %do.end43, label %if.then40

if.then40:                                        ; preds = %do.body32
  %conv41 = trunc i64 %addr to i32
  tail call void (ptr, ...) @qemu_log(ptr noundef nonnull @.str.35, i32 noundef %conv41) #6
  br label %do.end43

do.end43:                                         ; preds = %do.body32, %if.then40, %if.then16, %if.then21, %if.else19
  ret void
}